
Project_AVR.elf:     file format elf32-avr

Sections:
Idx Name          Size      VMA       LMA       File off  Algn
  0 .data         0000001c  00800100  0000050c  000005a0  2**0
                  CONTENTS, ALLOC, LOAD, DATA
  1 .text         0000050c  00000000  00000000  00000094  2**1
                  CONTENTS, ALLOC, LOAD, READONLY, CODE
  2 .bss          00000009  0080011c  0080011c  000005bc  2**0
                  ALLOC

Disassembly of section .text:

00000000 <__vectors>:
   0:	0c 94 3c 00 	jmp	0x78	; 0x78 <__ctors_end>
   4:	0c 94 59 00 	jmp	0xb2	; 0xb2 <__bad_interrupt>
   8:	0c 94 59 00 	jmp	0xb2	; 0xb2 <__bad_interrupt>
   c:	0c 94 59 00 	jmp	0xb2	; 0xb2 <__bad_interrupt>
  10:	0c 94 59 00 	jmp	0xb2	; 0xb2 <__bad_interrupt>
  14:	0c 94 59 00 	jmp	0xb2	; 0xb2 <__bad_interrupt>
  18:	0c 94 59 00 	jmp	0xb2	; 0xb2 <__bad_interrupt>
  1c:	0c 94 59 00 	jmp	0xb2	; 0xb2 <__bad_interrupt>
  20:	0c 94 59 00 	jmp	0xb2	; 0xb2 <__bad_interrupt>
  24:	0c 94 59 00 	jmp	0xb2	; 0xb2 <__bad_interrupt>
  28:	0c 94 59 00 	jmp	0xb2	; 0xb2 <__bad_interrupt>
  2c:	0c 94 59 00 	jmp	0xb2	; 0xb2 <__bad_interrupt>
  30:	0c 94 59 00 	jmp	0xb2	; 0xb2 <__bad_interrupt>
  34:	0c 94 59 00 	jmp	0xb2	; 0xb2 <__bad_interrupt>
  38:	0c 94 59 00 	jmp	0xb2	; 0xb2 <__bad_interrupt>
  3c:	0c 94 59 00 	jmp	0xb2	; 0xb2 <__bad_interrupt>
  40:	0c 94 59 00 	jmp	0xb2	; 0xb2 <__bad_interrupt>
  44:	0c 94 59 00 	jmp	0xb2	; 0xb2 <__bad_interrupt>
  48:	0c 94 59 00 	jmp	0xb2	; 0xb2 <__bad_interrupt>
  4c:	0c 94 59 00 	jmp	0xb2	; 0xb2 <__bad_interrupt>
  50:	0c 94 59 00 	jmp	0xb2	; 0xb2 <__bad_interrupt>
  54:	0c 94 59 00 	jmp	0xb2	; 0xb2 <__bad_interrupt>
  58:	0c 94 59 00 	jmp	0xb2	; 0xb2 <__bad_interrupt>
  5c:	0c 94 59 00 	jmp	0xb2	; 0xb2 <__bad_interrupt>
  60:	0c 94 8f 00 	jmp	0x11e	; 0x11e <__vector_24>
  64:	0c 94 59 00 	jmp	0xb2	; 0xb2 <__bad_interrupt>

00000068 <convTable>:
  68:	40 79 24 30 19 12 02 78 00 18 08 03 46 21 06 0e     @y$0...x....F!..

00000078 <__ctors_end>:
  78:	11 24       	eor	r1, r1
  7a:	1f be       	out	0x3f, r1	; 63
  7c:	cf ef       	ldi	r28, 0xFF	; 255
  7e:	d8 e0       	ldi	r29, 0x08	; 8
  80:	de bf       	out	0x3e, r29	; 62
  82:	cd bf       	out	0x3d, r28	; 61

00000084 <__do_copy_data>:
  84:	11 e0       	ldi	r17, 0x01	; 1
  86:	a0 e0       	ldi	r26, 0x00	; 0
  88:	b1 e0       	ldi	r27, 0x01	; 1
  8a:	ec e0       	ldi	r30, 0x0C	; 12
  8c:	f5 e0       	ldi	r31, 0x05	; 5
  8e:	02 c0       	rjmp	.+4      	; 0x94 <.do_copy_data_start>

00000090 <.do_copy_data_loop>:
  90:	05 90       	lpm	r0, Z+
  92:	0d 92       	st	X+, r0

00000094 <.do_copy_data_start>:
  94:	ac 31       	cpi	r26, 0x1C	; 28
  96:	b1 07       	cpc	r27, r17
  98:	d9 f7       	brne	.-10     	; 0x90 <.do_copy_data_loop>

0000009a <__do_clear_bss>:
  9a:	11 e0       	ldi	r17, 0x01	; 1
  9c:	ac e1       	ldi	r26, 0x1C	; 28
  9e:	b1 e0       	ldi	r27, 0x01	; 1
  a0:	01 c0       	rjmp	.+2      	; 0xa4 <.do_clear_bss_start>

000000a2 <.do_clear_bss_loop>:
  a2:	1d 92       	st	X+, r1

000000a4 <.do_clear_bss_start>:
  a4:	a5 32       	cpi	r26, 0x25	; 37
  a6:	b1 07       	cpc	r27, r17
  a8:	e1 f7       	brne	.-8      	; 0xa2 <.do_clear_bss_loop>
  aa:	0e 94 63 02 	call	0x4c6	; 0x4c6 <main>
  ae:	0c 94 84 02 	jmp	0x508	; 0x508 <_exit>

000000b2 <__bad_interrupt>:
  b2:	0c 94 00 00 	jmp	0	; 0x0 <__vectors>

000000b6 <i2c_write>:
  b6:	91 e0       	ldi	r25, 0x01	; 1
  b8:	90 93 1d 01 	sts	0x011D, r25
  bc:	80 93 1f 01 	sts	0x011F, r24
  c0:	60 93 20 01 	sts	0x0120, r22
  c4:	40 93 24 01 	sts	0x0124, r20
  c8:	10 92 1e 01 	sts	0x011E, r1
  cc:	80 91 bc 00 	lds	r24, 0x00BC
  d0:	80 62       	ori	r24, 0x20	; 32
  d2:	80 93 bc 00 	sts	0x00BC, r24
  d6:	90 93 22 01 	sts	0x0122, r25
  da:	8a e0       	ldi	r24, 0x0A	; 10
  dc:	80 93 23 01 	sts	0x0123, r24
  e0:	80 91 1e 01 	lds	r24, 0x011E
  e4:	88 23       	and	r24, r24
  e6:	e1 f3       	breq	.-8      	; 0xe0 <i2c_write+0x2a>
  e8:	08 95       	ret

000000ea <i2c_read>:
  ea:	10 92 1d 01 	sts	0x011D, r1
  ee:	80 93 1f 01 	sts	0x011F, r24
  f2:	60 93 24 01 	sts	0x0124, r22
  f6:	10 92 1e 01 	sts	0x011E, r1
  fa:	80 91 bc 00 	lds	r24, 0x00BC
  fe:	80 62       	ori	r24, 0x20	; 32
 100:	80 93 bc 00 	sts	0x00BC, r24
 104:	81 e0       	ldi	r24, 0x01	; 1
 106:	80 93 22 01 	sts	0x0122, r24
 10a:	8f ef       	ldi	r24, 0xFF	; 255
 10c:	80 93 23 01 	sts	0x0123, r24
 110:	80 91 1e 01 	lds	r24, 0x011E
 114:	88 23       	and	r24, r24
 116:	e1 f3       	breq	.-8      	; 0x110 <i2c_read+0x26>
 118:	80 91 21 01 	lds	r24, 0x0121
 11c:	08 95       	ret

0000011e <__vector_24>:
 11e:	1f 92       	push	r1
 120:	0f 92       	push	r0
 122:	0f b6       	in	r0, 0x3f	; 63
 124:	0f 92       	push	r0
 126:	11 24       	eor	r1, r1
 128:	8f 93       	push	r24
 12a:	9f 93       	push	r25
 12c:	80 91 b9 00 	lds	r24, 0x00B9
 130:	90 e0       	ldi	r25, 0x00	; 0
 132:	88 7f       	andi	r24, 0xF8	; 248
 134:	90 70       	andi	r25, 0x00	; 0
 136:	88 31       	cpi	r24, 0x18	; 24
 138:	91 05       	cpc	r25, r1
 13a:	49 f1       	breq	.+82     	; 0x18e <__vector_24+0x70>
 13c:	89 31       	cpi	r24, 0x19	; 25
 13e:	91 05       	cpc	r25, r1
 140:	3c f4       	brge	.+14     	; 0x150 <__vector_24+0x32>
 142:	88 30       	cpi	r24, 0x08	; 8
 144:	91 05       	cpc	r25, r1
 146:	81 f0       	breq	.+32     	; 0x168 <__vector_24+0x4a>
 148:	40 97       	sbiw	r24, 0x10	; 16
 14a:	09 f0       	breq	.+2      	; 0x14e <__vector_24+0x30>
 14c:	5c c0       	rjmp	.+184    	; 0x206 <__vector_24+0xe8>
 14e:	43 c0       	rjmp	.+134    	; 0x1d6 <__vector_24+0xb8>
 150:	80 34       	cpi	r24, 0x40	; 64
 152:	91 05       	cpc	r25, r1
 154:	09 f4       	brne	.+2      	; 0x158 <__vector_24+0x3a>
 156:	4b c0       	rjmp	.+150    	; 0x1ee <__vector_24+0xd0>
 158:	88 35       	cpi	r24, 0x58	; 88
 15a:	91 05       	cpc	r25, r1
 15c:	09 f4       	brne	.+2      	; 0x160 <__vector_24+0x42>
 15e:	4e c0       	rjmp	.+156    	; 0x1fc <__vector_24+0xde>
 160:	88 97       	sbiw	r24, 0x28	; 40
 162:	09 f0       	breq	.+2      	; 0x166 <__vector_24+0x48>
 164:	50 c0       	rjmp	.+160    	; 0x206 <__vector_24+0xe8>
 166:	1d c0       	rjmp	.+58     	; 0x1a2 <__vector_24+0x84>
 168:	80 91 1d 01 	lds	r24, 0x011D
 16c:	88 23       	and	r24, r24
 16e:	21 f0       	breq	.+8      	; 0x178 <__vector_24+0x5a>
 170:	80 91 24 01 	lds	r24, 0x0124
 174:	81 60       	ori	r24, 0x01	; 1
 176:	02 c0       	rjmp	.+4      	; 0x17c <__vector_24+0x5e>
 178:	80 91 24 01 	lds	r24, 0x0124
 17c:	80 93 bb 00 	sts	0x00BB, r24
 180:	80 91 bc 00 	lds	r24, 0x00BC
 184:	8f 7d       	andi	r24, 0xDF	; 223
 186:	80 93 bc 00 	sts	0x00BC, r24
 18a:	82 e0       	ldi	r24, 0x02	; 2
 18c:	21 c0       	rjmp	.+66     	; 0x1d0 <__vector_24+0xb2>
 18e:	80 91 1f 01 	lds	r24, 0x011F
 192:	80 93 bb 00 	sts	0x00BB, r24
 196:	83 e0       	ldi	r24, 0x03	; 3
 198:	80 93 22 01 	sts	0x0122, r24
 19c:	10 92 1c 01 	sts	0x011C, r1
 1a0:	71 c0       	rjmp	.+226    	; 0x284 <__vector_24+0x166>
 1a2:	80 91 1c 01 	lds	r24, 0x011C
 1a6:	88 23       	and	r24, r24
 1a8:	09 f0       	breq	.+2      	; 0x1ac <__vector_24+0x8e>
 1aa:	64 c0       	rjmp	.+200    	; 0x274 <__vector_24+0x156>
 1ac:	80 91 1d 01 	lds	r24, 0x011D
 1b0:	88 23       	and	r24, r24
 1b2:	41 f0       	breq	.+16     	; 0x1c4 <__vector_24+0xa6>
 1b4:	80 91 20 01 	lds	r24, 0x0120
 1b8:	80 93 bb 00 	sts	0x00BB, r24
 1bc:	81 e0       	ldi	r24, 0x01	; 1
 1be:	80 93 1c 01 	sts	0x011C, r24
 1c2:	05 c0       	rjmp	.+10     	; 0x1ce <__vector_24+0xb0>
 1c4:	80 91 bc 00 	lds	r24, 0x00BC
 1c8:	80 62       	ori	r24, 0x20	; 32
 1ca:	80 93 bc 00 	sts	0x00BC, r24
 1ce:	84 e0       	ldi	r24, 0x04	; 4
 1d0:	80 93 22 01 	sts	0x0122, r24
 1d4:	57 c0       	rjmp	.+174    	; 0x284 <__vector_24+0x166>
 1d6:	80 91 24 01 	lds	r24, 0x0124
 1da:	81 60       	ori	r24, 0x01	; 1
 1dc:	80 93 bb 00 	sts	0x00BB, r24
 1e0:	80 91 bc 00 	lds	r24, 0x00BC
 1e4:	8f 7d       	andi	r24, 0xDF	; 223
 1e6:	80 93 bc 00 	sts	0x00BC, r24
 1ea:	85 e0       	ldi	r24, 0x05	; 5
 1ec:	f1 cf       	rjmp	.-30     	; 0x1d0 <__vector_24+0xb2>
 1ee:	80 91 bc 00 	lds	r24, 0x00BC
 1f2:	8f 7b       	andi	r24, 0xBF	; 191
 1f4:	80 93 bc 00 	sts	0x00BC, r24
 1f8:	86 e0       	ldi	r24, 0x06	; 6
 1fa:	ea cf       	rjmp	.-44     	; 0x1d0 <__vector_24+0xb2>
 1fc:	80 91 bb 00 	lds	r24, 0x00BB
 200:	80 93 21 01 	sts	0x0121, r24
 204:	37 c0       	rjmp	.+110    	; 0x274 <__vector_24+0x156>
 206:	80 91 23 01 	lds	r24, 0x0123
 20a:	81 50       	subi	r24, 0x01	; 1
 20c:	80 93 23 01 	sts	0x0123, r24
 210:	80 91 22 01 	lds	r24, 0x0122
 214:	83 30       	cpi	r24, 0x03	; 3
 216:	89 f0       	breq	.+34     	; 0x23a <__vector_24+0x11c>
 218:	84 30       	cpi	r24, 0x04	; 4
 21a:	28 f4       	brcc	.+10     	; 0x226 <__vector_24+0x108>
 21c:	81 30       	cpi	r24, 0x01	; 1
 21e:	b9 f0       	breq	.+46     	; 0x24e <__vector_24+0x130>
 220:	82 30       	cpi	r24, 0x02	; 2
 222:	21 f5       	brne	.+72     	; 0x26c <__vector_24+0x14e>
 224:	07 c0       	rjmp	.+14     	; 0x234 <__vector_24+0x116>
 226:	85 30       	cpi	r24, 0x05	; 5
 228:	b1 f0       	breq	.+44     	; 0x256 <__vector_24+0x138>
 22a:	85 30       	cpi	r24, 0x05	; 5
 22c:	48 f0       	brcs	.+18     	; 0x240 <__vector_24+0x122>
 22e:	86 30       	cpi	r24, 0x06	; 6
 230:	e9 f4       	brne	.+58     	; 0x26c <__vector_24+0x14e>
 232:	17 c0       	rjmp	.+46     	; 0x262 <__vector_24+0x144>
 234:	80 91 24 01 	lds	r24, 0x0124
 238:	11 c0       	rjmp	.+34     	; 0x25c <__vector_24+0x13e>
 23a:	80 91 1f 01 	lds	r24, 0x011F
 23e:	0e c0       	rjmp	.+28     	; 0x25c <__vector_24+0x13e>
 240:	80 91 1d 01 	lds	r24, 0x011D
 244:	88 23       	and	r24, r24
 246:	19 f0       	breq	.+6      	; 0x24e <__vector_24+0x130>
 248:	80 91 20 01 	lds	r24, 0x0120
 24c:	07 c0       	rjmp	.+14     	; 0x25c <__vector_24+0x13e>
 24e:	80 91 bc 00 	lds	r24, 0x00BC
 252:	80 62       	ori	r24, 0x20	; 32
 254:	09 c0       	rjmp	.+18     	; 0x268 <__vector_24+0x14a>
 256:	80 91 24 01 	lds	r24, 0x0124
 25a:	81 60       	ori	r24, 0x01	; 1
 25c:	80 93 bb 00 	sts	0x00BB, r24
 260:	05 c0       	rjmp	.+10     	; 0x26c <__vector_24+0x14e>
 262:	80 91 bc 00 	lds	r24, 0x00BC
 266:	8f 7b       	andi	r24, 0xBF	; 191
 268:	80 93 bc 00 	sts	0x00BC, r24
 26c:	80 91 23 01 	lds	r24, 0x0123
 270:	88 23       	and	r24, r24
 272:	41 f4       	brne	.+16     	; 0x284 <__vector_24+0x166>
 274:	80 91 bc 00 	lds	r24, 0x00BC
 278:	80 61       	ori	r24, 0x10	; 16
 27a:	80 93 bc 00 	sts	0x00BC, r24
 27e:	81 e0       	ldi	r24, 0x01	; 1
 280:	80 93 1e 01 	sts	0x011E, r24
 284:	80 91 bc 00 	lds	r24, 0x00BC
 288:	80 68       	ori	r24, 0x80	; 128
 28a:	80 93 bc 00 	sts	0x00BC, r24
 28e:	9f 91       	pop	r25
 290:	8f 91       	pop	r24
 292:	0f 90       	pop	r0
 294:	0f be       	out	0x3f, r0	; 63
 296:	0f 90       	pop	r0
 298:	1f 90       	pop	r1
 29a:	18 95       	reti

0000029c <i2c_init>:
 29c:	82 e1       	ldi	r24, 0x12	; 18
 29e:	80 93 b8 00 	sts	0x00B8, r24
 2a2:	e9 eb       	ldi	r30, 0xB9	; 185
 2a4:	f0 e0       	ldi	r31, 0x00	; 0
 2a6:	80 81       	ld	r24, Z
 2a8:	81 60       	ori	r24, 0x01	; 1
 2aa:	80 83       	st	Z, r24
 2ac:	85 e8       	ldi	r24, 0x85	; 133
 2ae:	80 93 bc 00 	sts	0x00BC, r24
 2b2:	59 9a       	sbi	0x0b, 1	; 11
 2b4:	2d e1       	ldi	r18, 0x1D	; 29
 2b6:	31 e0       	ldi	r19, 0x01	; 1
 2b8:	c9 01       	movw	r24, r18
 2ba:	60 e0       	ldi	r22, 0x00	; 0
 2bc:	70 e0       	ldi	r23, 0x00	; 0
 2be:	48 e0       	ldi	r20, 0x08	; 8
 2c0:	50 e0       	ldi	r21, 0x00	; 0
 2c2:	0e 94 7d 02 	call	0x4fa	; 0x4fa <memset>
 2c6:	08 95       	ret

000002c8 <SPI_MasterInit>:
 2c8:	8c e2       	ldi	r24, 0x2C	; 44
 2ca:	84 b9       	out	0x04, r24	; 4
 2cc:	81 e7       	ldi	r24, 0x71	; 113
 2ce:	8c bd       	out	0x2c, r24	; 44
 2d0:	08 95       	ret

000002d2 <SPI_Transmit>:
 2d2:	8e bd       	out	0x2e, r24	; 46
 2d4:	0d b4       	in	r0, 0x2d	; 45
 2d6:	07 fe       	sbrs	r0, 7
 2d8:	fd cf       	rjmp	.-6      	; 0x2d4 <SPI_Transmit+0x2>
 2da:	8e b5       	in	r24, 0x2e	; 46
 2dc:	08 95       	ret

000002de <SPI_SlaveReceive>:
 2de:	8e bd       	out	0x2e, r24	; 46
 2e0:	0d b4       	in	r0, 0x2d	; 45
 2e2:	07 fe       	sbrs	r0, 7
 2e4:	fd cf       	rjmp	.-6      	; 0x2e0 <SPI_SlaveReceive+0x2>
 2e6:	8e b5       	in	r24, 0x2e	; 46
 2e8:	08 95       	ret

000002ea <get_usart_stream>:
 2ea:	80 e0       	ldi	r24, 0x00	; 0
 2ec:	91 e0       	ldi	r25, 0x01	; 1
 2ee:	08 95       	ret

000002f0 <USART_Init>:
 2f0:	e0 ec       	ldi	r30, 0xC0	; 192
 2f2:	f0 e0       	ldi	r31, 0x00	; 0
 2f4:	95 83       	std	Z+5, r25	; 0x05
 2f6:	84 83       	std	Z+4, r24	; 0x04
 2f8:	10 82       	st	Z, r1
 2fa:	88 e9       	ldi	r24, 0x98	; 152
 2fc:	81 83       	std	Z+1, r24	; 0x01
 2fe:	86 e0       	ldi	r24, 0x06	; 6
 300:	82 83       	std	Z+2, r24	; 0x02
 302:	08 95       	ret

00000304 <USART_tx>:
 304:	98 2f       	mov	r25, r24
 306:	80 91 c0 00 	lds	r24, 0x00C0
 30a:	85 ff       	sbrs	r24, 5
 30c:	fc cf       	rjmp	.-8      	; 0x306 <USART_tx+0x2>
 30e:	e0 ec       	ldi	r30, 0xC0	; 192
 310:	f0 e0       	ldi	r31, 0x00	; 0
 312:	96 83       	std	Z+6, r25	; 0x06
 314:	08 95       	ret

00000316 <USART_rx>:
 316:	80 91 c0 00 	lds	r24, 0x00C0
 31a:	87 ff       	sbrs	r24, 7
 31c:	fc cf       	rjmp	.-8      	; 0x316 <USART_rx>
 31e:	80 91 c6 00 	lds	r24, 0x00C6
 322:	08 95       	ret

00000324 <usart_putchar>:
 324:	98 2f       	mov	r25, r24
 326:	80 91 c0 00 	lds	r24, 0x00C0
 32a:	85 ff       	sbrs	r24, 5
 32c:	fc cf       	rjmp	.-8      	; 0x326 <usart_putchar+0x2>
 32e:	e0 ec       	ldi	r30, 0xC0	; 192
 330:	f0 e0       	ldi	r31, 0x00	; 0
 332:	96 83       	std	Z+6, r25	; 0x06
 334:	80 e0       	ldi	r24, 0x00	; 0
 336:	90 e0       	ldi	r25, 0x00	; 0
 338:	08 95       	ret

0000033a <inic_stream>:
 33a:	8e e0       	ldi	r24, 0x0E	; 14
 33c:	91 e0       	ldi	r25, 0x01	; 1
 33e:	08 95       	ret

00000340 <cmd_LCD>:
 340:	48 2f       	mov	r20, r24
 342:	66 23       	and	r22, r22
 344:	11 f4       	brne	.+4      	; 0x34a <cmd_LCD+0xa>
 346:	2d 98       	cbi	0x05, 5	; 5
 348:	01 c0       	rjmp	.+2      	; 0x34c <cmd_LCD+0xc>
 34a:	2d 9a       	sbi	0x05, 5	; 5
 34c:	85 b1       	in	r24, 0x05	; 5
 34e:	94 2f       	mov	r25, r20
 350:	92 95       	swap	r25
 352:	9f 70       	andi	r25, 0x0F	; 15
 354:	80 7f       	andi	r24, 0xF0	; 240
 356:	98 2b       	or	r25, r24
 358:	95 b9       	out	0x05, r25	; 5
 35a:	25 e0       	ldi	r18, 0x05	; 5
 35c:	82 2f       	mov	r24, r18
 35e:	8a 95       	dec	r24
 360:	f1 f7       	brne	.-4      	; 0x35e <cmd_LCD+0x1e>
 362:	2c 9a       	sbi	0x05, 4	; 5
 364:	82 2f       	mov	r24, r18
 366:	8a 95       	dec	r24
 368:	f1 f7       	brne	.-4      	; 0x366 <cmd_LCD+0x26>
 36a:	2c 98       	cbi	0x05, 4	; 5
 36c:	30 ef       	ldi	r19, 0xF0	; 240
 36e:	83 2f       	mov	r24, r19
 370:	8a 95       	dec	r24
 372:	f1 f7       	brne	.-4      	; 0x370 <cmd_LCD+0x30>
 374:	85 b1       	in	r24, 0x05	; 5
 376:	94 2f       	mov	r25, r20
 378:	9f 70       	andi	r25, 0x0F	; 15
 37a:	80 7f       	andi	r24, 0xF0	; 240
 37c:	98 2b       	or	r25, r24
 37e:	95 b9       	out	0x05, r25	; 5
 380:	82 2f       	mov	r24, r18
 382:	8a 95       	dec	r24
 384:	f1 f7       	brne	.-4      	; 0x382 <cmd_LCD+0x42>
 386:	2c 9a       	sbi	0x05, 4	; 5
 388:	2a 95       	dec	r18
 38a:	f1 f7       	brne	.-4      	; 0x388 <cmd_LCD+0x48>
 38c:	2c 98       	cbi	0x05, 4	; 5
 38e:	3a 95       	dec	r19
 390:	f1 f7       	brne	.-4      	; 0x38e <cmd_LCD+0x4e>
 392:	66 23       	and	r22, r22
 394:	31 f4       	brne	.+12     	; 0x3a2 <cmd_LCD+0x62>
 396:	44 30       	cpi	r20, 0x04	; 4
 398:	20 f4       	brcc	.+8      	; 0x3a2 <cmd_LCD+0x62>
 39a:	80 e4       	ldi	r24, 0x40	; 64
 39c:	9f e1       	ldi	r25, 0x1F	; 31
 39e:	01 97       	sbiw	r24, 0x01	; 1
 3a0:	f1 f7       	brne	.-4      	; 0x39e <cmd_LCD+0x5e>
 3a2:	08 95       	ret

000003a4 <inic_LCD_4bits>:
 3a4:	25 9a       	sbi	0x04, 5	; 4
 3a6:	24 9a       	sbi	0x04, 4	; 4
 3a8:	84 b1       	in	r24, 0x04	; 4
 3aa:	8f 60       	ori	r24, 0x0F	; 15
 3ac:	84 b9       	out	0x04, r24	; 4
 3ae:	2d 98       	cbi	0x05, 5	; 5
 3b0:	2c 98       	cbi	0x05, 4	; 5
 3b2:	88 ec       	ldi	r24, 0xC8	; 200
 3b4:	90 e0       	ldi	r25, 0x00	; 0
 3b6:	20 e9       	ldi	r18, 0x90	; 144
 3b8:	31 e0       	ldi	r19, 0x01	; 1
 3ba:	f9 01       	movw	r30, r18
 3bc:	31 97       	sbiw	r30, 0x01	; 1
 3be:	f1 f7       	brne	.-4      	; 0x3bc <inic_LCD_4bits+0x18>
 3c0:	01 97       	sbiw	r24, 0x01	; 1
 3c2:	d9 f7       	brne	.-10     	; 0x3ba <inic_LCD_4bits+0x16>
 3c4:	85 b1       	in	r24, 0x05	; 5
 3c6:	80 7f       	andi	r24, 0xF0	; 240
 3c8:	83 60       	ori	r24, 0x03	; 3
 3ca:	85 b9       	out	0x05, r24	; 5
 3cc:	95 e0       	ldi	r25, 0x05	; 5
 3ce:	89 2f       	mov	r24, r25
 3d0:	8a 95       	dec	r24
 3d2:	f1 f7       	brne	.-4      	; 0x3d0 <inic_LCD_4bits+0x2c>
 3d4:	2c 9a       	sbi	0x05, 4	; 5
 3d6:	89 2f       	mov	r24, r25
 3d8:	8a 95       	dec	r24
 3da:	f1 f7       	brne	.-4      	; 0x3d8 <inic_LCD_4bits+0x34>
 3dc:	2c 98       	cbi	0x05, 4	; 5
 3de:	20 ef       	ldi	r18, 0xF0	; 240
 3e0:	82 2f       	mov	r24, r18
 3e2:	8a 95       	dec	r24
 3e4:	f1 f7       	brne	.-4      	; 0x3e2 <inic_LCD_4bits+0x3e>
 3e6:	e0 e2       	ldi	r30, 0x20	; 32
 3e8:	fe e4       	ldi	r31, 0x4E	; 78
 3ea:	31 97       	sbiw	r30, 0x01	; 1
 3ec:	f1 f7       	brne	.-4      	; 0x3ea <inic_LCD_4bits+0x46>
 3ee:	89 2f       	mov	r24, r25
 3f0:	8a 95       	dec	r24
 3f2:	f1 f7       	brne	.-4      	; 0x3f0 <inic_LCD_4bits+0x4c>
 3f4:	2c 9a       	sbi	0x05, 4	; 5
 3f6:	89 2f       	mov	r24, r25
 3f8:	8a 95       	dec	r24
 3fa:	f1 f7       	brne	.-4      	; 0x3f8 <inic_LCD_4bits+0x54>
 3fc:	2c 98       	cbi	0x05, 4	; 5
 3fe:	82 2f       	mov	r24, r18
 400:	8a 95       	dec	r24
 402:	f1 f7       	brne	.-4      	; 0x400 <inic_LCD_4bits+0x5c>
 404:	e0 e2       	ldi	r30, 0x20	; 32
 406:	f3 e0       	ldi	r31, 0x03	; 3
 408:	31 97       	sbiw	r30, 0x01	; 1
 40a:	f1 f7       	brne	.-4      	; 0x408 <inic_LCD_4bits+0x64>
 40c:	89 2f       	mov	r24, r25
 40e:	8a 95       	dec	r24
 410:	f1 f7       	brne	.-4      	; 0x40e <inic_LCD_4bits+0x6a>
 412:	2c 9a       	sbi	0x05, 4	; 5
 414:	89 2f       	mov	r24, r25
 416:	8a 95       	dec	r24
 418:	f1 f7       	brne	.-4      	; 0x416 <inic_LCD_4bits+0x72>
 41a:	2c 98       	cbi	0x05, 4	; 5
 41c:	82 2f       	mov	r24, r18
 41e:	8a 95       	dec	r24
 420:	f1 f7       	brne	.-4      	; 0x41e <inic_LCD_4bits+0x7a>
 422:	85 b1       	in	r24, 0x05	; 5
 424:	80 7f       	andi	r24, 0xF0	; 240
 426:	82 60       	ori	r24, 0x02	; 2
 428:	85 b9       	out	0x05, r24	; 5
 42a:	89 2f       	mov	r24, r25
 42c:	8a 95       	dec	r24
 42e:	f1 f7       	brne	.-4      	; 0x42c <inic_LCD_4bits+0x88>
 430:	2c 9a       	sbi	0x05, 4	; 5
 432:	9a 95       	dec	r25
 434:	f1 f7       	brne	.-4      	; 0x432 <inic_LCD_4bits+0x8e>
 436:	2c 98       	cbi	0x05, 4	; 5
 438:	2a 95       	dec	r18
 43a:	f1 f7       	brne	.-4      	; 0x438 <inic_LCD_4bits+0x94>
 43c:	88 e2       	ldi	r24, 0x28	; 40
 43e:	60 e0       	ldi	r22, 0x00	; 0
 440:	0e 94 a0 01 	call	0x340	; 0x340 <cmd_LCD>
 444:	88 e0       	ldi	r24, 0x08	; 8
 446:	60 e0       	ldi	r22, 0x00	; 0
 448:	0e 94 a0 01 	call	0x340	; 0x340 <cmd_LCD>
 44c:	81 e0       	ldi	r24, 0x01	; 1
 44e:	60 e0       	ldi	r22, 0x00	; 0
 450:	0e 94 a0 01 	call	0x340	; 0x340 <cmd_LCD>
 454:	8c e0       	ldi	r24, 0x0C	; 12
 456:	60 e0       	ldi	r22, 0x00	; 0
 458:	0e 94 a0 01 	call	0x340	; 0x340 <cmd_LCD>
 45c:	80 e8       	ldi	r24, 0x80	; 128
 45e:	60 e0       	ldi	r22, 0x00	; 0
 460:	0e 94 a0 01 	call	0x340	; 0x340 <cmd_LCD>
 464:	08 95       	ret

00000466 <escreve_LCD>:
 466:	cf 93       	push	r28
 468:	df 93       	push	r29
 46a:	ec 01       	movw	r28, r24
 46c:	04 c0       	rjmp	.+8      	; 0x476 <escreve_LCD+0x10>
 46e:	61 e0       	ldi	r22, 0x01	; 1
 470:	0e 94 a0 01 	call	0x340	; 0x340 <cmd_LCD>
 474:	21 96       	adiw	r28, 0x01	; 1
 476:	88 81       	ld	r24, Y
 478:	88 23       	and	r24, r24
 47a:	c9 f7       	brne	.-14     	; 0x46e <escreve_LCD+0x8>
 47c:	df 91       	pop	r29
 47e:	cf 91       	pop	r28
 480:	08 95       	ret

00000482 <escreve_LCD_Flash>:
 482:	cf 93       	push	r28
 484:	df 93       	push	r29
 486:	ec 01       	movw	r28, r24
 488:	04 c0       	rjmp	.+8      	; 0x492 <escreve_LCD_Flash+0x10>
 48a:	61 e0       	ldi	r22, 0x01	; 1
 48c:	0e 94 a0 01 	call	0x340	; 0x340 <cmd_LCD>
 490:	21 96       	adiw	r28, 0x01	; 1
 492:	fe 01       	movw	r30, r28
 494:	84 91       	lpm	r24, Z+
 496:	88 23       	and	r24, r24
 498:	c1 f7       	brne	.-16     	; 0x48a <escreve_LCD_Flash+0x8>
 49a:	df 91       	pop	r29
 49c:	cf 91       	pop	r28
 49e:	08 95       	ret

000004a0 <lcd_putchar>:
 4a0:	61 e0       	ldi	r22, 0x01	; 1
 4a2:	0e 94 a0 01 	call	0x340	; 0x340 <cmd_LCD>
 4a6:	81 e0       	ldi	r24, 0x01	; 1
 4a8:	90 e0       	ldi	r25, 0x00	; 0
 4aa:	08 95       	ret

000004ac <display_init>:
 4ac:	8f e7       	ldi	r24, 0x7F	; 127
 4ae:	8a b9       	out	0x0a, r24	; 10
 4b0:	08 95       	ret

000004b2 <display_write>:
 4b2:	e8 e6       	ldi	r30, 0x68	; 104
 4b4:	f0 e0       	ldi	r31, 0x00	; 0
 4b6:	e8 0f       	add	r30, r24
 4b8:	f1 1d       	adc	r31, r1
 4ba:	e4 91       	lpm	r30, Z+
 4bc:	eb b9       	out	0x0b, r30	; 11
 4be:	08 95       	ret

000004c0 <hardware_init>:
 4c0:	81 e0       	ldi	r24, 0x01	; 1
 4c2:	85 b9       	out	0x05, r24	; 5
 4c4:	08 95       	ret

000004c6 <main>:
 4c6:	1f 93       	push	r17
 4c8:	cf 93       	push	r28
 4ca:	df 93       	push	r29
 4cc:	0e 94 56 02 	call	0x4ac	; 0x4ac <display_init>
 4d0:	10 e0       	ldi	r17, 0x00	; 0
 4d2:	c0 e9       	ldi	r28, 0x90	; 144
 4d4:	d1 e0       	ldi	r29, 0x01	; 1
 4d6:	18 99       	sbic	0x03, 0	; 3
 4d8:	fe cf       	rjmp	.-4      	; 0x4d6 <main+0x10>
 4da:	10 31       	cpi	r17, 0x10	; 16
 4dc:	10 f0       	brcs	.+4      	; 0x4e2 <main+0x1c>
 4de:	10 e0       	ldi	r17, 0x00	; 0
 4e0:	fa cf       	rjmp	.-12     	; 0x4d6 <main+0x10>
 4e2:	81 2f       	mov	r24, r17
 4e4:	0e 94 59 02 	call	0x4b2	; 0x4b2 <display_write>
 4e8:	88 e8       	ldi	r24, 0x88	; 136
 4ea:	93 e1       	ldi	r25, 0x13	; 19
 4ec:	fe 01       	movw	r30, r28
 4ee:	31 97       	sbiw	r30, 0x01	; 1
 4f0:	f1 f7       	brne	.-4      	; 0x4ee <main+0x28>
 4f2:	01 97       	sbiw	r24, 0x01	; 1
 4f4:	d9 f7       	brne	.-10     	; 0x4ec <main+0x26>
 4f6:	1f 5f       	subi	r17, 0xFF	; 255
 4f8:	ee cf       	rjmp	.-36     	; 0x4d6 <main+0x10>

000004fa <memset>:
 4fa:	dc 01       	movw	r26, r24
 4fc:	01 c0       	rjmp	.+2      	; 0x500 <memset+0x6>
 4fe:	6d 93       	st	X+, r22
 500:	41 50       	subi	r20, 0x01	; 1
 502:	50 40       	sbci	r21, 0x00	; 0
 504:	e0 f7       	brcc	.-8      	; 0x4fe <memset+0x4>
 506:	08 95       	ret

00000508 <_exit>:
 508:	f8 94       	cli

0000050a <__stop_program>:
 50a:	ff cf       	rjmp	.-2      	; 0x50a <__stop_program>
